target datalayout = "e-m:e-p270:32:32-p271:32:32-p272:64:64-i64:64-i128:128-f80:128-n8:16:32:64-S128"
target triple = "x86_64-pc-linux-gnu"

%"class.std::__cxx11::basic_string" = type { %"struct.std::__cxx11::basic_string<char>::_Alloc_hider", i64, %union.anon }
%"struct.std::__cxx11::basic_string<char>::_Alloc_hider" = type { ptr }
%union.anon = type { i64, [8 x i8] }
%struct.common_params_sampling = type { i32, i32, i32, i32, i32, float, float, float, float, float, float, float, float, i32, float, float, float, float, float, i32, i32, i32, float, float, float, i8, i8, i8, %"class.std::vector", %"class.std::vector.3", %"class.std::__cxx11::basic_string", i8, %"class.std::vector.8", %"class.std::vector.13", %"class.std::set", %"class.std::vector.21" }
%"class.std::vector" = type { %"struct.std::_Vector_base" }
%"struct.std::_Vector_base" = type { %"struct.std::_Vector_base<std::__cxx11::basic_string<char>, std::allocator<std::__cxx11::basic_string<char>>>::_Vector_impl" }
%"struct.std::_Vector_base<std::__cxx11::basic_string<char>, std::allocator<std::__cxx11::basic_string<char>>>::_Vector_impl" = type { %"struct.std::_Vector_base<std::__cxx11::basic_string<char>, std::allocator<std::__cxx11::basic_string<char>>>::_Vector_impl_data" }
%"struct.std::_Vector_base<std::__cxx11::basic_string<char>, std::allocator<std::__cxx11::basic_string<char>>>::_Vector_impl_data" = type { ptr, ptr, ptr }
%"class.std::vector.3" = type { %"struct.std::_Vector_base.4" }
%"struct.std::_Vector_base.4" = type { %"struct.std::_Vector_base<common_sampler_type, std::allocator<common_sampler_type>>::_Vector_impl" }
%"struct.std::_Vector_base<common_sampler_type, std::allocator<common_sampler_type>>::_Vector_impl" = type { %"struct.std::_Vector_base<common_sampler_type, std::allocator<common_sampler_type>>::_Vector_impl_data" }
%"struct.std::_Vector_base<common_sampler_type, std::allocator<common_sampler_type>>::_Vector_impl_data" = type { ptr, ptr, ptr }
%"class.std::vector.8" = type { %"struct.std::_Vector_base.9" }
%"struct.std::_Vector_base.9" = type { %"struct.std::_Vector_base<common_grammar_trigger, std::allocator<common_grammar_trigger>>::_Vector_impl" }
%"struct.std::_Vector_base<common_grammar_trigger, std::allocator<common_grammar_trigger>>::_Vector_impl" = type { %"struct.std::_Vector_base<common_grammar_trigger, std::allocator<common_grammar_trigger>>::_Vector_impl_data" }
%"struct.std::_Vector_base<common_grammar_trigger, std::allocator<common_grammar_trigger>>::_Vector_impl_data" = type { ptr, ptr, ptr }
%"class.std::vector.13" = type { %"struct.std::_Vector_base.14" }
%"struct.std::_Vector_base.14" = type { %"struct.std::_Vector_base<int, std::allocator<int>>::_Vector_impl" }
%"struct.std::_Vector_base<int, std::allocator<int>>::_Vector_impl" = type { %"struct.std::_Vector_base<int, std::allocator<int>>::_Vector_impl_data" }
%"struct.std::_Vector_base<int, std::allocator<int>>::_Vector_impl_data" = type { ptr, ptr, ptr }
%"class.std::set" = type { %"class.std::_Rb_tree" }
%"class.std::_Rb_tree" = type { %"struct.std::_Rb_tree<int, int, std::_Identity<int>, std::less<int>>::_Rb_tree_impl" }
%"struct.std::_Rb_tree<int, int, std::_Identity<int>, std::less<int>>::_Rb_tree_impl" = type { [8 x i8], %"struct.std::_Rb_tree_header" }
%"struct.std::_Rb_tree_header" = type { %"struct.std::_Rb_tree_node_base", i64 }
%"struct.std::_Rb_tree_node_base" = type { i32, ptr, ptr, ptr }
%"class.std::vector.21" = type { %"struct.std::_Vector_base.22" }
%"struct.std::_Vector_base.22" = type { %"struct.std::_Vector_base<llama_logit_bias, std::allocator<llama_logit_bias>>::_Vector_impl" }
%"struct.std::_Vector_base<llama_logit_bias, std::allocator<llama_logit_bias>>::_Vector_impl" = type { %"struct.std::_Vector_base<llama_logit_bias, std::allocator<llama_logit_bias>>::_Vector_impl_data" }
%"struct.std::_Vector_base<llama_logit_bias, std::allocator<llama_logit_bias>>::_Vector_impl_data" = type { ptr, ptr, ptr }
%struct.common_sampler = type { %struct.common_params_sampling, ptr, ptr, %struct.ring_buffer, %"class.std::vector.31", %struct.llama_token_data_array }
%struct.ring_buffer = type { i64, i64, i64, i64, %"class.std::vector.13" }
%"class.std::vector.31" = type { %"struct.std::_Vector_base.32" }
%"struct.std::_Vector_base.32" = type { %"struct.std::_Vector_base<llama_token_data, std::allocator<llama_token_data>>::_Vector_impl" }
%"struct.std::_Vector_base<llama_token_data, std::allocator<llama_token_data>>::_Vector_impl" = type { %"struct.std::_Vector_base<llama_token_data, std::allocator<llama_token_data>>::_Vector_impl_data" }
%"struct.std::_Vector_base<llama_token_data, std::allocator<llama_token_data>>::_Vector_impl_data" = type { ptr, ptr, ptr }
%struct.llama_token_data_array = type { ptr, i64, i64, i8 }

; Function Attrs: mustprogress nounwind uwtable
define linkonce_odr noundef nonnull align 4 dereferenceable(4) ptr @_ZNSt6vectorIiSaIiEEixEm(ptr noundef nonnull align 8 dereferenceable(24) %0, i64 noundef %1) #3 comdat align 2 {
  %3 = alloca ptr, align 8
  %4 = alloca i64, align 8
  store ptr %0, ptr %3, align 8, !tbaa !131
  store i64 %1, ptr %4, align 8, !tbaa !117
  %5 = load ptr, ptr %3, align 8
  %6 = getelementptr inbounds nuw %"struct.std::_Vector_base.14", ptr %5, i32 0, i32 0
  %7 = getelementptr inbounds nuw %"struct.std::_Vector_base<int, std::allocator<int>>::_Vector_impl_data", ptr %6, i32 0, i32 0
  %8 = load ptr, ptr %7, align 8, !tbaa !133
  %9 = load i64, ptr %4, align 8, !tbaa !117
  %10 = getelementptr inbounds nuw i32, ptr %8, i64 %9
  ret ptr %10
}

; Function Attrs: mustprogress nounwind uwtable
define linkonce_odr void @_ZN11ring_bufferIiE9push_backERKi(ptr noundef nonnull align 8 dereferenceable(56) %0, ptr noundef nonnull align 4 dereferenceable(4) %1) #3 comdat align 2 {
  %3 = alloca ptr, align 8
  %4 = alloca ptr, align 8
  store ptr %0, ptr %3, align 8, !tbaa !136
  store ptr %1, ptr %4, align 8, !tbaa !135
  %5 = load ptr, ptr %3, align 8
  %6 = getelementptr inbounds nuw %struct.ring_buffer, ptr %5, i32 0, i32 1
  %7 = load i64, ptr %6, align 8, !tbaa !139
  %8 = getelementptr inbounds nuw %struct.ring_buffer, ptr %5, i32 0, i32 0
  %9 = load i64, ptr %8, align 8, !tbaa !138
  %10 = icmp eq i64 %7, %9
  br i1 %10, label %11, label %19

11:                                               ; preds = %2
  %12 = getelementptr inbounds nuw %struct.ring_buffer, ptr %5, i32 0, i32 2
  %13 = load i64, ptr %12, align 8, !tbaa !140
  %14 = add i64 %13, 1
  %15 = getelementptr inbounds nuw %struct.ring_buffer, ptr %5, i32 0, i32 0
  %16 = load i64, ptr %15, align 8, !tbaa !138
  %17 = urem i64 %14, %16
  %18 = getelementptr inbounds nuw %struct.ring_buffer, ptr %5, i32 0, i32 2
  store i64 %17, ptr %18, align 8, !tbaa !140
  br label %23

19:                                               ; preds = %2
  %20 = getelementptr inbounds nuw %struct.ring_buffer, ptr %5, i32 0, i32 1
  %21 = load i64, ptr %20, align 8, !tbaa !139
  %22 = add i64 %21, 1
  store i64 %22, ptr %20, align 8, !tbaa !139
  br label %23

23:                                               ; preds = %19, %11
  %24 = load ptr, ptr %4, align 8, !tbaa !135
  %25 = load i32, ptr %24, align 4, !tbaa !101
  %26 = getelementptr inbounds nuw %struct.ring_buffer, ptr %5, i32 0, i32 4
  %27 = getelementptr inbounds nuw %struct.ring_buffer, ptr %5, i32 0, i32 3
  %28 = load i64, ptr %27, align 8, !tbaa !141
  %29 = call noundef nonnull align 4 dereferenceable(4) ptr @_ZNSt6vectorIiSaIiEEixEm(ptr noundef nonnull align 8 dereferenceable(24) %26, i64 noundef %28) #15
  store i32 %25, ptr %29, align 4, !tbaa !101
  %30 = getelementptr inbounds nuw %struct.ring_buffer, ptr %5, i32 0, i32 3
  %31 = load i64, ptr %30, align 8, !tbaa !141
  %32 = add i64 %31, 1
  %33 = getelementptr inbounds nuw %struct.ring_buffer, ptr %5, i32 0, i32 0
  %34 = load i64, ptr %33, align 8, !tbaa !138
  %35 = urem i64 %32, %34
  %36 = getelementptr inbounds nuw %struct.ring_buffer, ptr %5, i32 0, i32 3
  store i64 %35, ptr %36, align 8, !tbaa !141
  ret void
}

; Function Attrs: mustprogress uwtable
define void @_Z21common_sampler_acceptP14common_samplerib(ptr noundef %0, i32 noundef %1, i1 noundef zeroext %2) #0 {
  %4 = alloca ptr, align 8
  %5 = alloca i32, align 4
  %6 = alloca i8, align 1
  store ptr %0, ptr %4, align 8, !tbaa !102
  store i32 %1, ptr %5, align 4, !tbaa !101
  %7 = zext i1 %2 to i8
  store i8 %7, ptr %6, align 1, !tbaa !99
  %8 = load i8, ptr %6, align 1, !tbaa !99, !range !79, !noundef !80
  %9 = trunc i8 %8 to i1
  br i1 %9, label %10, label %15

10:                                               ; preds = %3
  %11 = load ptr, ptr %4, align 8, !tbaa !102
  %12 = getelementptr inbounds nuw %struct.common_sampler, ptr %11, i32 0, i32 1
  %13 = load ptr, ptr %12, align 8, !tbaa !89
  %14 = load i32, ptr %5, align 4, !tbaa !101
  call void @llama_sampler_accept(ptr noundef %13, i32 noundef %14)
  br label %15

15:                                               ; preds = %10, %3
  %16 = load ptr, ptr %4, align 8, !tbaa !102
  %17 = getelementptr inbounds nuw %struct.common_sampler, ptr %16, i32 0, i32 2
  %18 = load ptr, ptr %17, align 8, !tbaa !100
  %19 = load i32, ptr %5, align 4, !tbaa !101
  call void @llama_sampler_accept(ptr noundef %18, i32 noundef %19)
  %20 = load ptr, ptr %4, align 8, !tbaa !102
  %21 = getelementptr inbounds nuw %struct.common_sampler, ptr %20, i32 0, i32 3
  call void @_ZN11ring_bufferIiE9push_backERKi(ptr noundef nonnull align 8 dereferenceable(56) %21, ptr noundef nonnull align 4 dereferenceable(4) %5)
  ret void
}