; Function Attrs: mustprogress uwtable
define void @_Z21common_sampler_acceptP14common_samplerib(ptr noundef captures(none) %0, i32 noundef %1, i1 noundef zeroext %2) local_unnamed_addr #0 {
  br i1 %2, label %4, label %7

4:                                                ; preds = %3
  %5 = getelementptr inbounds nuw i8, ptr %0, i64 312
  %6 = load ptr, ptr %5, align 8, !tbaa !80
  tail call void @llama_sampler_accept(ptr noundef %6, i32 noundef %1)
  br label %7

7:                                                ; preds = %4, %3
  %8 = getelementptr inbounds nuw i8, ptr %0, i64 320
  %9 = load ptr, ptr %8, align 8, !tbaa !90
  tail call void @llama_sampler_accept(ptr noundef %9, i32 noundef %1)
  %10 = getelementptr inbounds nuw i8, ptr %0, i64 328
  %11 = getelementptr inbounds nuw i8, ptr %0, i64 336
  %12 = load i64, ptr %11, align 8, !tbaa !133
  %13 = load i64, ptr %10, align 8, !tbaa !92
  %14 = icmp eq i64 %12, %13
  br i1 %14, label %15, label %20

15:                                               ; preds = %7
  %16 = getelementptr inbounds nuw i8, ptr %0, i64 344
  %17 = load i64, ptr %16, align 8, !tbaa !134
  %18 = add i64 %17, 1
  %19 = urem i64 %18, %12
  store i64 %19, ptr %16, align 8, !tbaa !134
  br label %_ZN11ring_bufferIiE9push_backERKi.exit

20:                                               ; preds = %7
  %21 = add i64 %12, 1
  store i64 %21, ptr %11, align 8, !tbaa !133
  br label %_ZN11ring_bufferIiE9push_backERKi.exit

_ZN11ring_bufferIiE9push_backERKi.exit:           ; preds = %15, %20
  %22 = getelementptr inbounds nuw i8, ptr %0, i64 360
  %23 = getelementptr inbounds nuw i8, ptr %0, i64 352
  %24 = load i64, ptr %23, align 8, !tbaa !135
  %25 = load ptr, ptr %22, align 8, !tbaa !78
  %26 = getelementptr inbounds nuw i32, ptr %25, i64 %24
  store i32 %1, ptr %26, align 4, !tbaa !91
  %27 = add i64 %24, 1
  %28 = urem i64 %27, %13
  store i64 %28, ptr %23, align 8, !tbaa !135
  ret void
}